; Function Attrs: mustprogress uwtable
define void @_ZN5boost4urls15static_url_base12reserve_implEmRNS0_8url_base4op_tE(ptr nocapture noundef nonnull readonly align 8 dereferenceable(216) %0, i64 noundef %1, ptr nocapture nonnull readnone align 8 %2) unnamed_addr #2 align 2 {
  %4 = alloca %"struct.boost::source_location", align 8
  %5 = getelementptr inbounds nuw i8, ptr %0, i64 208
  %6 = load i64, ptr %5, align 8, !tbaa !17
  %.not = icmp ugt i64 %1, %6
  br i1 %.not, label %8, label %7

7:                                                ; preds = %3
  ret void

8:                                                ; preds = %3
  call void @llvm.lifetime.start.p0(i64 24, ptr nonnull %4) #19
  store ptr @.str, ptr %4, align 8, !tbaa !20
  %9 = getelementptr inbounds nuw i8, ptr %4, i64 8
  store ptr @.str.2, ptr %9, align 8, !tbaa !23
  %10 = getelementptr inbounds nuw i8, ptr %4, i64 16
  store i32 60, ptr %10, align 8, !tbaa !24
  %11 = getelementptr inbounds nuw i8, ptr %4, i64 20
  store i32 5, ptr %11, align 4, !tbaa !25
  call void @_ZN5boost4urls6detail18throw_length_errorERKNS_15source_locationE(ptr noundef nonnull align 8 dereferenceable(24) %4) #20
  unreachable
}